target datalayout = "e-m:e-p270:32:32-p271:32:32-p272:64:64-i64:64-i128:128-f80:128-n8:16:32:64-S128"
target triple = "x86_64-pc-linux-gnu"

@master_label = internal constant [14 x i8] c"master secret\00", align 1

; Function Attrs: nounwind uwtable
define internal i32 @_MakeTlsMasterSecret(ptr noundef %0, i32 noundef %1, ptr noundef %2, i32 noundef %3, ptr noundef %4, ptr noundef %5, i32 noundef %6, i32 noundef %7, ptr noundef %8, i32 noundef %9) #0 {
  %11 = alloca ptr, align 8
  %12 = alloca i32, align 4
  %13 = alloca ptr, align 8
  %14 = alloca i32, align 4
  %15 = alloca ptr, align 8
  %16 = alloca ptr, align 8
  %17 = alloca i32, align 4
  %18 = alloca i32, align 4
  %19 = alloca ptr, align 8
  %20 = alloca i32, align 4
  %21 = alloca i32, align 4
  %22 = alloca [64 x i8], align 16
  store ptr %0, ptr %11, align 8, !tbaa !8
  store i32 %1, ptr %12, align 4, !tbaa !12
  store ptr %2, ptr %13, align 8, !tbaa !8
  store i32 %3, ptr %14, align 4, !tbaa !12
  store ptr %4, ptr %15, align 8, !tbaa !8
  store ptr %5, ptr %16, align 8, !tbaa !8
  store i32 %6, ptr %17, align 4, !tbaa !12
  store i32 %7, ptr %18, align 4, !tbaa !12
  store ptr %8, ptr %19, align 8, !tbaa !54
  store i32 %9, ptr %20, align 4, !tbaa !12
  call void @llvm.lifetime.start.p0(i64 4, ptr %21) #8
  call void @llvm.lifetime.start.p0(i64 64, ptr %22) #8
  %23 = getelementptr inbounds [64 x i8], ptr %22, i64 0, i64 0
  %24 = load ptr, ptr %15, align 8, !tbaa !8
  call void @llvm.memcpy.p0.p0.i64(ptr align 16 %23, ptr align 1 %24, i64 32, i1 false)
  %25 = getelementptr inbounds [64 x i8], ptr %22, i64 0, i64 0
  %26 = getelementptr inbounds i8, ptr %25, i64 32
  %27 = load ptr, ptr %16, align 8, !tbaa !8
  call void @llvm.memcpy.p0.p0.i64(ptr align 1 %26, ptr align 1 %27, i64 32, i1 false)
  br label %28

28:                                               ; preds = %10
  br label %29

29:                                               ; preds = %28
  br label %30

30:                                               ; preds = %29
  %31 = load ptr, ptr %11, align 8, !tbaa !8
  %32 = load i32, ptr %12, align 4, !tbaa !12
  %33 = load ptr, ptr %13, align 8, !tbaa !8
  %34 = load i32, ptr %14, align 4, !tbaa !12
  %35 = getelementptr inbounds [64 x i8], ptr %22, i64 0, i64 0
  %36 = load i32, ptr %17, align 4, !tbaa !12
  %37 = load i32, ptr %18, align 4, !tbaa !12
  %38 = load ptr, ptr %19, align 8, !tbaa !54
  %39 = load i32, ptr %20, align 4, !tbaa !12
  %40 = call i32 @wc_PRF_TLS(ptr noundef %31, i32 noundef %32, ptr noundef %33, i32 noundef %34, ptr noundef @master_label, i32 noundef 13, ptr noundef %35, i32 noundef 64, i32 noundef %36, i32 noundef %37, ptr noundef %38, i32 noundef %39)
  store i32 %40, ptr %21, align 4, !tbaa !12
  br label %41

41:                                               ; preds = %30
  br label %42

42:                                               ; preds = %41
  br label %43

43:                                               ; preds = %42
  %44 = load i32, ptr %21, align 4, !tbaa !12
  call void @llvm.lifetime.end.p0(i64 64, ptr %22) #8
  call void @llvm.lifetime.end.p0(i64 4, ptr %21) #8
  ret i32 %44
}

; Function Attrs: nounwind uwtable
define i32 @wolfSSL_MakeTlsMasterSecret(ptr noundef %0, i32 noundef %1, ptr noundef %2, i32 noundef %3, ptr noundef %4, ptr noundef %5, i32 noundef %6, i32 noundef %7) #0 {
  %9 = alloca ptr, align 8
  %10 = alloca i32, align 4
  %11 = alloca ptr, align 8
  %12 = alloca i32, align 4
  %13 = alloca ptr, align 8
  %14 = alloca ptr, align 8
  %15 = alloca i32, align 4
  %16 = alloca i32, align 4
  store ptr %0, ptr %9, align 8, !tbaa !8
  store i32 %1, ptr %10, align 4, !tbaa !12
  store ptr %2, ptr %11, align 8, !tbaa !8
  store i32 %3, ptr %12, align 4, !tbaa !12
  store ptr %4, ptr %13, align 8, !tbaa !8
  store ptr %5, ptr %14, align 8, !tbaa !8
  store i32 %6, ptr %15, align 4, !tbaa !12
  store i32 %7, ptr %16, align 4, !tbaa !12
  %17 = load ptr, ptr %9, align 8, !tbaa !8
  %18 = load i32, ptr %10, align 4, !tbaa !12
  %19 = load ptr, ptr %11, align 8, !tbaa !8
  %20 = load i32, ptr %12, align 4, !tbaa !12
  %21 = load ptr, ptr %13, align 8, !tbaa !8
  %22 = load ptr, ptr %14, align 8, !tbaa !8
  %23 = load i32, ptr %15, align 4, !tbaa !12
  %24 = load i32, ptr %16, align 4, !tbaa !12
  %25 = call i32 @_MakeTlsMasterSecret(ptr noundef %17, i32 noundef %18, ptr noundef %19, i32 noundef %20, ptr noundef %21, ptr noundef %22, i32 noundef %23, i32 noundef %24, ptr noundef null, i32 noundef -2)
  ret i32 %25
}